target datalayout = "e-m:e-p270:32:32-p271:32:32-p272:64:64-i64:64-i128:128-f80:128-n8:16:32:64-S128"
target triple = "x86_64-pc-linux-gnu"

%"class.pxrInternal_v0_24__pxrReserved__::TfWeakPtr" = type { ptr, %"class.pxrInternal_v0_24__pxrReserved__::TfRefPtr" }
%"class.pxrInternal_v0_24__pxrReserved__::TfRefPtr" = type { ptr }
%"class.pxrInternal_v0_24__pxrReserved__::SdfPath" = type { %"struct.pxrInternal_v0_24__pxrReserved__::Sdf_PathNodeHandleImpl", %"struct.pxrInternal_v0_24__pxrReserved__::Sdf_PathNodeHandleImpl.1" }
%"struct.pxrInternal_v0_24__pxrReserved__::Sdf_PathNodeHandleImpl" = type { %"struct.pxrInternal_v0_24__pxrReserved__::Sdf_Pool<pxrInternal_v0_24__pxrReserved__::Sdf_PathPrimTag, 24, 8>::Handle" }
%"struct.pxrInternal_v0_24__pxrReserved__::Sdf_Pool<pxrInternal_v0_24__pxrReserved__::Sdf_PathPrimTag, 24, 8>::Handle" = type { i32 }
%"struct.pxrInternal_v0_24__pxrReserved__::Sdf_PathNodeHandleImpl.1" = type { %"struct.pxrInternal_v0_24__pxrReserved__::Sdf_Pool<pxrInternal_v0_24__pxrReserved__::Sdf_PathPropTag, 24, 8>::Handle" }
%"struct.pxrInternal_v0_24__pxrReserved__::Sdf_Pool<pxrInternal_v0_24__pxrReserved__::Sdf_PathPropTag, 24, 8>::Handle" = type { i32 }
%"class.pxrInternal_v0_24__pxrReserved__::TfToken" = type { %"class.pxrInternal_v0_24__pxrReserved__::TfPointerAndBits.47" }
%"class.pxrInternal_v0_24__pxrReserved__::TfPointerAndBits.47" = type { ptr }
%"class.pxrInternal_v0_24__pxrReserved__::SdfChildrenView" = type { %"class.pxrInternal_v0_24__pxrReserved__::Sdf_Children", [8 x i8] }
%"class.pxrInternal_v0_24__pxrReserved__::Sdf_Children" = type <{ %"class.pxrInternal_v0_24__pxrReserved__::TfWeakPtr", %"class.pxrInternal_v0_24__pxrReserved__::SdfPath", %"class.pxrInternal_v0_24__pxrReserved__::TfToken", [8 x i8], %"class.std::vector", i8, [7 x i8] }>
%"class.std::vector" = type { %"struct.std::_Vector_base" }
%"struct.std::_Vector_base" = type { %"struct.std::_Vector_base<pxrInternal_v0_24__pxrReserved__::TfToken, std::allocator<pxrInternal_v0_24__pxrReserved__::TfToken>>::_Vector_impl" }
%"struct.std::_Vector_base<pxrInternal_v0_24__pxrReserved__::TfToken, std::allocator<pxrInternal_v0_24__pxrReserved__::TfToken>>::_Vector_impl" = type { %"struct.std::_Vector_base<pxrInternal_v0_24__pxrReserved__::TfToken, std::allocator<pxrInternal_v0_24__pxrReserved__::TfToken>>::_Vector_impl_data" }
%"struct.std::_Vector_base<pxrInternal_v0_24__pxrReserved__::TfToken, std::allocator<pxrInternal_v0_24__pxrReserved__::TfToken>>::_Vector_impl_data" = type { ptr, ptr, ptr }
%"class.std::vector.53" = type { %"struct.std::_Vector_base.54" }
%"struct.std::_Vector_base.54" = type { %"struct.std::_Vector_base<pxrInternal_v0_24__pxrReserved__::SdfHandle<pxrInternal_v0_24__pxrReserved__::SdfVariantSpec>, std::allocator<pxrInternal_v0_24__pxrReserved__::SdfHandle<pxrInternal_v0_24__pxrReserved__::SdfVariantSpec>>>::_Vector_impl" }
%"struct.std::_Vector_base<pxrInternal_v0_24__pxrReserved__::SdfHandle<pxrInternal_v0_24__pxrReserved__::SdfVariantSpec>, std::allocator<pxrInternal_v0_24__pxrReserved__::SdfHandle<pxrInternal_v0_24__pxrReserved__::SdfVariantSpec>>>::_Vector_impl" = type { %"struct.std::_Vector_base<pxrInternal_v0_24__pxrReserved__::SdfHandle<pxrInternal_v0_24__pxrReserved__::SdfVariantSpec>, std::allocator<pxrInternal_v0_24__pxrReserved__::SdfHandle<pxrInternal_v0_24__pxrReserved__::SdfVariantSpec>>>::_Vector_impl_data" }
%"struct.std::_Vector_base<pxrInternal_v0_24__pxrReserved__::SdfHandle<pxrInternal_v0_24__pxrReserved__::SdfVariantSpec>, std::allocator<pxrInternal_v0_24__pxrReserved__::SdfHandle<pxrInternal_v0_24__pxrReserved__::SdfVariantSpec>>>::_Vector_impl_data" = type { ptr, ptr, ptr }

; Function Attrs: mustprogress nounwind uwtable
define linkonce_odr void @_ZN32pxrInternal_v0_24__pxrReserved__15SdfChildrenViewINS_22Sdf_VariantChildPolicyENS_31SdfChildrenViewTrivialPredicateINS_9SdfHandleINS_14SdfVariantSpecEEEEENS_29SdfChildrenViewTrivialAdapterIS5_EEED2Ev(ptr noundef nonnull align 8 dereferenceable(73) %0) unnamed_addr #2 comdat align 2 {
  %2 = alloca ptr, align 8
  store ptr %0, ptr %2, align 8
  %3 = load ptr, ptr %2, align 8
  %4 = getelementptr inbounds nuw %"class.pxrInternal_v0_24__pxrReserved__::SdfChildrenView", ptr %3, i32 0, i32 0
  call void @_ZN32pxrInternal_v0_24__pxrReserved__12Sdf_ChildrenINS_22Sdf_VariantChildPolicyEED2Ev(ptr noundef nonnull align 8 dereferenceable(65) %4) #5
  ret void
}

; Function Attrs: mustprogress uwtable
define void @_ZNK32pxrInternal_v0_24__pxrReserved__17SdfVariantSetSpec14GetVariantListEv(ptr dead_on_unwind noalias writable sret(%"class.std::vector.53") align 8 %0, ptr noundef nonnull align 8 dereferenceable(8) %1) #0 align 2 personality ptr @__gxx_personality_v0 {
  %3 = alloca ptr, align 8
  %4 = alloca ptr, align 8
  %5 = alloca %"class.pxrInternal_v0_24__pxrReserved__::SdfChildrenView", align 8
  %6 = alloca ptr, align 8
  %7 = alloca i32, align 4
  store ptr %0, ptr %3, align 8
  store ptr %1, ptr %4, align 8
  %8 = load ptr, ptr %4, align 8
  call void @_ZNK32pxrInternal_v0_24__pxrReserved__17SdfVariantSetSpec11GetVariantsEv(ptr dead_on_unwind writable sret(%"class.pxrInternal_v0_24__pxrReserved__::SdfChildrenView") align 8 %5, ptr noundef nonnull align 8 dereferenceable(8) %8)
  invoke void @_ZNK32pxrInternal_v0_24__pxrReserved__15SdfChildrenViewINS_22Sdf_VariantChildPolicyENS_31SdfChildrenViewTrivialPredicateINS_9SdfHandleINS_14SdfVariantSpecEEEEENS_29SdfChildrenViewTrivialAdapterIS5_EEE6valuesEv(ptr dead_on_unwind writable sret(%"class.std::vector.53") align 8 %0, ptr noundef nonnull align 8 dereferenceable(73) %5)
          to label %9 unwind label %10

9:                                                ; preds = %2
  call void @_ZN32pxrInternal_v0_24__pxrReserved__15SdfChildrenViewINS_22Sdf_VariantChildPolicyENS_31SdfChildrenViewTrivialPredicateINS_9SdfHandleINS_14SdfVariantSpecEEEEENS_29SdfChildrenViewTrivialAdapterIS5_EEED2Ev(ptr noundef nonnull align 8 dereferenceable(73) %5) #5
  ret void

10:                                               ; preds = %2
  %11 = landingpad { ptr, i32 }
          cleanup
  %12 = extractvalue { ptr, i32 } %11, 0
  store ptr %12, ptr %6, align 8
  %13 = extractvalue { ptr, i32 } %11, 1
  store i32 %13, ptr %7, align 4
  call void @_ZN32pxrInternal_v0_24__pxrReserved__15SdfChildrenViewINS_22Sdf_VariantChildPolicyENS_31SdfChildrenViewTrivialPredicateINS_9SdfHandleINS_14SdfVariantSpecEEEEENS_29SdfChildrenViewTrivialAdapterIS5_EEED2Ev(ptr noundef nonnull align 8 dereferenceable(73) %5) #5
  br label %14

14:                                               ; preds = %10
  %15 = load ptr, ptr %6, align 8
  %16 = load i32, ptr %7, align 4
  %17 = insertvalue { ptr, i32 } poison, ptr %15, 0
  %18 = insertvalue { ptr, i32 } %17, i32 %16, 1
  resume { ptr, i32 } %18
}