; Function Attrs: mustprogress uwtable
define void @_ZNK32pxrInternal_v0_24__pxrReserved__17SdfVariantSetSpec14GetVariantListEv(ptr dead_on_unwind noalias writable sret(%"class.std::vector.53") align 8 %0, ptr noundef nonnull align 8 dereferenceable(8) %1) local_unnamed_addr #0 align 2 personality ptr @__gxx_personality_v0 {
  %3 = alloca %"class.pxrInternal_v0_24__pxrReserved__::SdfChildrenView", align 8
  call void @_ZNK32pxrInternal_v0_24__pxrReserved__17SdfVariantSetSpec11GetVariantsEv(ptr dead_on_unwind nonnull writable sret(%"class.pxrInternal_v0_24__pxrReserved__::SdfChildrenView") align 8 %3, ptr noundef nonnull align 8 dereferenceable(8) %1)
  invoke void @_ZNK32pxrInternal_v0_24__pxrReserved__15SdfChildrenViewINS_22Sdf_VariantChildPolicyENS_31SdfChildrenViewTrivialPredicateINS_9SdfHandleINS_14SdfVariantSpecEEEEENS_29SdfChildrenViewTrivialAdapterIS5_EEE6valuesEv(ptr dead_on_unwind writable sret(%"class.std::vector.53") align 8 %0, ptr noundef nonnull align 8 dereferenceable(73) %3)
          to label %4 unwind label %5

4:                                                ; preds = %2
  call void @_ZN32pxrInternal_v0_24__pxrReserved__12Sdf_ChildrenINS_22Sdf_VariantChildPolicyEED2Ev(ptr noundef nonnull align 8 dereferenceable(65) %3) #15
  ret void

5:                                                ; preds = %2
  %6 = landingpad { ptr, i32 }
          cleanup
  call void @_ZN32pxrInternal_v0_24__pxrReserved__12Sdf_ChildrenINS_22Sdf_VariantChildPolicyEED2Ev(ptr noundef nonnull align 8 dereferenceable(65) %3) #15
  resume { ptr, i32 } %6
}